; Function Attrs: mustprogress nofree nounwind willreturn memory(read, inaccessiblemem: none) uwtable
define internal noundef range(i32 -2147483647, -2147483648) i32 @_ZNK7rocksdb12_GLOBAL__N_123ComparatorWithU64TsImplINS0_29ReverseBytewiseComparatorImplEE23CompareWithoutTimestampERKNS_5SliceEbS6_b(ptr noundef nonnull readonly align 8 captures(none) dereferenceable(96) %0, ptr noundef nonnull readonly align 8 captures(none) dereferenceable(16) %1, i1 noundef zeroext %2, ptr noundef nonnull readonly align 8 captures(none) dereferenceable(16) %3, i1 noundef zeroext %4) unnamed_addr #10 align 2 {
  %6 = getelementptr inbounds nuw i8, ptr %0, i64 40
  %7 = load i64, ptr %6, align 8, !tbaa !5
  %8 = getelementptr inbounds nuw i8, ptr %1, i64 8
  %9 = load i64, ptr %8, align 8
  %10 = select i1 %2, i64 %7, i64 0
  %.sroa.511.0 = sub i64 %9, %10
  %.sroa.010.0 = load ptr, ptr %1, align 8, !tbaa !79
  %11 = getelementptr inbounds nuw i8, ptr %3, i64 8
  %12 = load i64, ptr %11, align 8
  %13 = select i1 %4, i64 %7, i64 0
  %.sroa.5.0 = sub i64 %12, %13
  %.sroa.0.0 = load ptr, ptr %3, align 8, !tbaa !79
  %..i.i = tail call i64 @llvm.umin.i64(i64 %.sroa.511.0, i64 %.sroa.5.0)
  %14 = tail call i32 @memcmp(ptr noundef %.sroa.010.0, ptr noundef %.sroa.0.0, i64 noundef %..i.i) #31
  %.not.i.i = icmp eq i32 %14, 0
  %.mux.i.i = tail call i32 @llvm.ucmp.i32.i64(i64 %.sroa.511.0, i64 %.sroa.5.0)
  %.0.i.i = select i1 %.not.i.i, i32 %.mux.i.i, i32 %14
  %15 = sub nsw i32 0, %.0.i.i
  ret i32 %15
}